; Function Attrs: nounwind uwtable
define internal void @picklebuf_dealloc(ptr noundef %0) #0 {
  tail call void @PyObject_GC_UnTrack(ptr noundef %0) #5
  %2 = getelementptr inbounds nuw i8, ptr %0, i64 96
  %3 = load ptr, ptr %2, align 8, !tbaa !24
  %.not = icmp eq ptr %3, null
  br i1 %.not, label %5, label %4

4:                                                ; preds = %1
  tail call void @PyObject_ClearWeakRefs(ptr noundef nonnull %0) #5
  br label %5

5:                                                ; preds = %4, %1
  %6 = getelementptr inbounds nuw i8, ptr %0, i64 16
  tail call void @PyBuffer_Release(ptr noundef nonnull %6) #5
  %7 = getelementptr i8, ptr %0, i64 8
  %.val = load ptr, ptr %7, align 8, !tbaa !26
  %8 = getelementptr inbounds nuw i8, ptr %.val, i64 320
  %9 = load ptr, ptr %8, align 8, !tbaa !29
  tail call void %9(ptr noundef nonnull %0) #5
  ret void
}